(dp1
S'output'
p2
S''
sS'layer'
p3
S'Framework'
p4
sS'code'
p5
S''
sS'snapshot'
p6
(dp7
sS'traceback'
p8
S'Traceback (most recent call last):\n  File "gluon/main.py", line 446, in wsgibase\n  File "gluon/main.py", line 194, in serve_controller\n  File "gluon/compileapp.py", line 710, in run_view_in\n  File "gluon/template.py", line 797, in parse_template\n  File "gluon/template.py", line 331, in __str__\n  File "gluon/template.py", line 327, in to_string\n  File "gluon/template.py", line 168, in __str__\n  File "gluon/template.py", line 168, in <genexpr>\n  File "gluon/template.py", line 77, in output_aux\n  File "gluon/template.py", line 149, in output\n  File "gluon/template.py", line 149, in <genexpr>\n  File "gluon/template.py", line 77, in output_aux\n  File "gluon/template.py", line 149, in output\n  File "gluon/template.py", line 149, in <genexpr>\n  File "gluon/template.py", line 77, in output_aux\n  File "gluon/template.py", line 149, in output\n  File "gluon/template.py", line 149, in <genexpr>\n  File "gluon/template.py", line 77, in output_aux\n  File "gluon/template.py", line 149, in output\n  File "gluon/template.py", line 149, in <genexpr>\n  File "gluon/template.py", line 77, in output_aux\n  File "gluon/template.py", line 149, in output\n  File "gluon/template.py", line 149, in <genexpr>\n  File "gluon/template.py", line 77, in output_aux\n  File "gluon/template.py", line 149, in output\n  File "gluon/template.py", line 149, in <genexpr>\n  File "gluon/template.py", line 77, in output_aux\n  File "gluon/template.py", line 149, in output\n  File "gluon/template.py", line 149, in <genexpr>\n  File "gluon/template.py", line 77, in output_aux\n  File "gluon/template.py", line 149, in output\n  File "gluon/template.py", line 149, in <genexpr>\n  File "gluon/template.py", line 77, in output_aux\n  File "gluon/template.py", line 149, in output\n  File "gluon/template.py", line 149, in <genexpr>\n  File "gluon/template.py", line 77, in output_aux\n  File "gluon/template.py", line 149, in output\n  File "gluon/template.py", line 149, in <genexpr>\n  File "gluon/template.py", line 77, in output_aux\n  File "gluon/template.py", line 149, in output\n  File "gluon/template.py", line 149, in <genexpr>\n  File "gluon/template.py", line 77, in output_aux\n  File "gluon/template.py", line 149, in output\n  File "gluon/template.py", line 149, in <genexpr>\n  File "gluon/template.py", line 77, in output_aux\n  File "gluon/template.py", line 149, in output\n  File "gluon/template.py", line 149, in <genexpr>\n  File "gluon/template.py", line 77, in output_aux\n  File "gluon/template.py", line 149, in output\n  File "gluon/template.py", line 149, in <genexpr>\n  File "gluon/template.py", line 77, in output_aux\n  File "gluon/template.py", line 149, in output\n  File "gluon/template.py", line 149, in <genexpr>\n  File "gluon/template.py", line 77, in output_aux\n  File "gluon/template.py", line 149, in output\n  File "gluon/template.py", line 149, in <genexpr>\n  File "gluon/template.py", line 77, in output_aux\n  File "gluon/template.py", line 149, in output\n  File "gluon/template.py", line 149, in <genexpr>\n  File "gluon/template.py", line 77, in output_aux\n  File "gluon/template.py", line 149, in output\n  File "gluon/template.py", line 149, in <genexpr>\n  File "gluon/template.py", line 77, in output_aux\n  File "gluon/template.py", line 149, in output\n  File "gluon/template.py", line 149, in <genexpr>\n  File "gluon/template.py", line 77, in output_aux\n  File "gluon/template.py", line 149, in output\n  File "gluon/template.py", line 149, in <genexpr>\n  File "gluon/template.py", line 77, in output_aux\n  File "gluon/template.py", line 149, in output\n  File "gluon/template.py", line 149, in <genexpr>\n  File "gluon/template.py", line 77, in output_aux\n  File "gluon/template.py", line 149, in output\n  File "gluon/template.py", line 149, in <genexpr>\n  File "gluon/template.py", line 77, in output_aux\n  File "gluon/template.py", line 149, in output\n  File "gluon/template.py", line 149, in <genexpr>\n  File "gluon/template.py", line 77, in output_aux\n  File "gluon/template.py", line 149, in output\n  File "gluon/template.py", line 149, in <genexpr>\n  File "gluon/template.py", line 77, in output_aux\n  File "gluon/template.py", line 149, in output\n  File "gluon/template.py", line 149, in <genexpr>\n  File "gluon/template.py", line 77, in output_aux\n  File "gluon/template.py", line 149, in output\n  File "gluon/template.py", line 149, in <genexpr>\n  File "gluon/template.py", line 77, in output_aux\n  File "gluon/template.py", line 149, in output\n  File "gluon/template.py", line 149, in <genexpr>\n  File "gluon/template.py", line 77, in output_aux\n  File "gluon/template.py", line 149, in output\n  File "gluon/template.py", line 149, in <genexpr>\n  File "gluon/template.py", line 77, in output_aux\n  File "gluon/template.py", line 149, in output\n  File "gluon/template.py", line 149, in <genexpr>\n  File "gluon/template.py", line 77, in output_aux\n  File "gluon/template.py", line 149, in output\n  File "gluon/template.py", line 149, in <genexpr>\n  File "gluon/template.py", line 77, in output_aux\n  File "gluon/template.py", line 149, in output\n  File "gluon/template.py", line 149, in <genexpr>\n  File "gluon/template.py", line 77, in output_aux\n  File "gluon/template.py", line 149, in output\n  File "gluon/template.py", line 149, in <genexpr>\n  File "gluon/template.py", line 77, in output_aux\n  File "gluon/template.py", line 149, in output\n  File "gluon/template.py", line 149, in <genexpr>\n  File "gluon/template.py", line 77, in output_aux\n  File "gluon/template.py", line 149, in output\n  File "gluon/template.py", line 149, in <genexpr>\n  File "gluon/template.py", line 77, in output_aux\n  File "gluon/template.py", line 149, in output\n  File "gluon/template.py", line 149, in <genexpr>\n  File "gluon/template.py", line 77, in output_aux\n  File "gluon/template.py", line 149, in output\n  File "gluon/template.py", line 149, in <genexpr>\n  File "gluon/template.py", line 77, in output_aux\n  File "gluon/template.py", line 149, in output\n  File "gluon/template.py", line 149, in <genexpr>\n  File "gluon/template.py", line 77, in output_aux\n  File "gluon/template.py", line 149, in output\n  File "gluon/template.py", line 149, in <genexpr>\n  File "gluon/template.py", line 77, in output_aux\n  File "gluon/template.py", line 149, in output\n  File "gluon/template.py", line 149, in <genexpr>\n  File "gluon/template.py", line 77, in output_aux\n  File "gluon/template.py", line 149, in output\n  File "gluon/template.py", line 149, in <genexpr>\n  File "gluon/template.py", line 77, in output_aux\n  File "gluon/template.py", line 149, in output\n  File "gluon/template.py", line 149, in <genexpr>\n  File "gluon/template.py", line 77, in output_aux\n  File "gluon/template.py", line 149, in output\n  File "gluon/template.py", line 149, in <genexpr>\n  File "gluon/template.py", line 77, in output_aux\n  File "gluon/template.py", line 149, in output\n  File "gluon/template.py", line 149, in <genexpr>\n  File "gluon/template.py", line 77, in output_aux\n  File "gluon/template.py", line 149, in output\n  File "gluon/template.py", line 149, in <genexpr>\n  File "gluon/template.py", line 77, in output_aux\n  File "gluon/template.py", line 149, in output\n  File "gluon/template.py", line 149, in <genexpr>\n  File "gluon/template.py", line 77, in output_aux\n  File "gluon/template.py", line 149, in output\n  File "gluon/template.py", line 149, in <genexpr>\n  File "gluon/template.py", line 77, in output_aux\n  File "gluon/template.py", line 149, in output\n  File "gluon/template.py", line 149, in <genexpr>\n  File "gluon/template.py", line 77, in output_aux\n  File "gluon/template.py", line 149, in output\n  File "gluon/template.py", line 149, in <genexpr>\n  File "gluon/template.py", line 77, in output_aux\n  File "gluon/template.py", line 149, in output\n  File "gluon/template.py", line 149, in <genexpr>\n  File "gluon/template.py", line 77, in output_aux\n  File "gluon/template.py", line 149, in output\n  File "gluon/template.py", line 149, in <genexpr>\n  File "gluon/template.py", line 77, in output_aux\n  File "gluon/template.py", line 149, in output\n  File "gluon/template.py", line 149, in <genexpr>\n  File "gluon/template.py", line 77, in output_aux\n  File "gluon/template.py", line 149, in output\n  File "gluon/template.py", line 149, in <genexpr>\n  File "gluon/template.py", line 77, in output_aux\n  File "gluon/template.py", line 149, in output\n  File "gluon/template.py", line 149, in <genexpr>\n  File "gluon/template.py", line 77, in output_aux\n  File "gluon/template.py", line 149, in output\n  File "gluon/template.py", line 149, in <genexpr>\n  File "gluon/template.py", line 77, in output_aux\n  File "gluon/template.py", line 149, in output\n  File "gluon/template.py", line 149, in <genexpr>\n  File "gluon/template.py", line 77, in output_aux\n  File "gluon/template.py", line 149, in output\n  File "gluon/template.py", line 149, in <genexpr>\n  File "gluon/template.py", line 77, in output_aux\n  File "gluon/template.py", line 149, in output\n  File "gluon/template.py", line 149, in <genexpr>\n  File "gluon/template.py", line 77, in output_aux\n  File "gluon/template.py", line 149, in output\n  File "gluon/template.py", line 149, in <genexpr>\n  File "gluon/template.py", line 77, in output_aux\n  File "gluon/template.py", line 149, in output\n  File "gluon/template.py", line 149, in <genexpr>\n  File "gluon/template.py", line 77, in output_aux\n  File "gluon/template.py", line 149, in output\n  File "gluon/template.py", line 149, in <genexpr>\n  File "gluon/template.py", line 77, in output_aux\n  File "gluon/template.py", line 149, in output\n  File "gluon/template.py", line 149, in <genexpr>\n  File "gluon/template.py", line 77, in output_aux\n  File "gluon/template.py", line 149, in output\n  File "gluon/template.py", line 149, in <genexpr>\n  File "gluon/template.py", line 77, in output_aux\n  File "gluon/template.py", line 149, in output\n  File "gluon/template.py", line 149, in <genexpr>\n  File "gluon/template.py", line 77, in output_aux\n  File "gluon/template.py", line 149, in output\n  File "gluon/template.py", line 149, in <genexpr>\n  File "gluon/template.py", line 77, in output_aux\n  File "gluon/template.py", line 149, in output\n  File "gluon/template.py", line 149, in <genexpr>\n  File "gluon/template.py", line 77, in output_aux\n  File "gluon/template.py", line 149, in output\n  File "gluon/template.py", line 149, in <genexpr>\n  File "gluon/template.py", line 77, in output_aux\n  File "gluon/template.py", line 149, in output\n  File "gluon/template.py", line 149, in <genexpr>\n  File "gluon/template.py", line 77, in output_aux\n  File "gluon/template.py", line 149, in output\n  File "gluon/template.py", line 149, in <genexpr>\n  File "gluon/template.py", line 77, in output_aux\n  File "gluon/template.py", line 149, in output\n  File "gluon/template.py", line 149, in <genexpr>\n  File "gluon/template.py", line 77, in output_aux\n  File "gluon/template.py", line 149, in output\n  File "gluon/template.py", line 149, in <genexpr>\n  File "gluon/template.py", line 77, in output_aux\n  File "gluon/template.py", line 149, in output\n  File "gluon/template.py", line 149, in <genexpr>\n  File "gluon/template.py", line 77, in output_aux\n  File "gluon/template.py", line 149, in output\n  File "gluon/template.py", line 149, in <genexpr>\n  File "gluon/template.py", line 77, in output_aux\n  File "gluon/template.py", line 149, in output\n  File "gluon/template.py", line 149, in <genexpr>\n  File "gluon/template.py", line 77, in output_aux\n  File "gluon/template.py", line 149, in output\n  File "gluon/template.py", line 149, in <genexpr>\n  File "gluon/template.py", line 77, in output_aux\n  File "gluon/template.py", line 149, in output\n  File "gluon/template.py", line 149, in <genexpr>\n  File "gluon/template.py", line 77, in output_aux\n  File "gluon/template.py", line 149, in output\n  File "gluon/template.py", line 149, in <genexpr>\n  File "gluon/template.py", line 77, in output_aux\n  File "gluon/template.py", line 149, in output\n  File "gluon/template.py", line 149, in <genexpr>\n  File "gluon/template.py", line 77, in output_aux\n  File "gluon/template.py", line 149, in output\n  File "gluon/template.py", line 149, in <genexpr>\n  File "gluon/template.py", line 77, in output_aux\n  File "gluon/template.py", line 149, in output\n  File "gluon/template.py", line 149, in <genexpr>\n  File "gluon/template.py", line 77, in output_aux\n  File "gluon/template.py", line 149, in output\n  File "gluon/template.py", line 149, in <genexpr>\n  File "gluon/template.py", line 77, in output_aux\n  File "gluon/template.py", line 149, in output\n  File "gluon/template.py", line 149, in <genexpr>\n  File "gluon/template.py", line 77, in output_aux\n  File "gluon/template.py", line 149, in output\n  File "gluon/template.py", line 149, in <genexpr>\n  File "gluon/template.py", line 77, in output_aux\n  File "gluon/template.py", line 149, in output\n  File "gluon/template.py", line 149, in <genexpr>\n  File "gluon/template.py", line 77, in output_aux\n  File "gluon/template.py", line 149, in output\n  File "gluon/template.py", line 149, in <genexpr>\n  File "gluon/template.py", line 77, in output_aux\n  File "gluon/template.py", line 149, in output\n  File "gluon/template.py", line 149, in <genexpr>\n  File "gluon/template.py", line 77, in output_aux\n  File "gluon/template.py", line 149, in output\n  File "gluon/template.py", line 149, in <genexpr>\n  File "gluon/template.py", line 77, in output_aux\n  File "gluon/template.py", line 149, in output\n  File "gluon/template.py", line 149, in <genexpr>\n  File "gluon/template.py", line 77, in output_aux\n  File "gluon/template.py", line 149, in output\n  File "gluon/template.py", line 149, in <genexpr>\n  File "gluon/template.py", line 77, in output_aux\n  File "gluon/template.py", line 149, in output\n  File "gluon/template.py", line 149, in <genexpr>\n  File "gluon/template.py", line 77, in output_aux\n  File "gluon/template.py", line 149, in output\n  File "gluon/template.py", line 149, in <genexpr>\n  File "gluon/template.py", line 77, in output_aux\n  File "gluon/template.py", line 149, in output\n  File "gluon/template.py", line 149, in <genexpr>\n  File "gluon/template.py", line 77, in output_aux\n  File "gluon/template.py", line 149, in output\n  File "gluon/template.py", line 149, in <genexpr>\n  File "gluon/template.py", line 77, in output_aux\n  File "gluon/template.py", line 149, in output\n  File "gluon/template.py", line 149, in <genexpr>\n  File "gluon/template.py", line 77, in output_aux\n  File "gluon/template.py", line 149, in output\n  File "gluon/template.py", line 149, in <genexpr>\n  File "gluon/template.py", line 77, in output_aux\n  File "gluon/template.py", line 149, in output\n  File "gluon/template.py", line 149, in <genexpr>\n  File "gluon/template.py", line 77, in output_aux\n  File "gluon/template.py", line 149, in output\n  File "gluon/template.py", line 149, in <genexpr>\n  File "gluon/template.py", line 77, in output_aux\n  File "gluon/template.py", line 149, in output\n  File "gluon/template.py", line 149, in <genexpr>\n  File "gluon/template.py", line 77, in output_aux\n  File "gluon/template.py", line 149, in output\n  File "gluon/template.py", line 149, in <genexpr>\n  File "gluon/template.py", line 77, in output_aux\n  File "gluon/template.py", line 149, in output\n  File "gluon/template.py", line 149, in <genexpr>\n  File "gluon/template.py", line 77, in output_aux\n  File "gluon/template.py", line 149, in output\n  File "gluon/template.py", line 149, in <genexpr>\n  File "gluon/template.py", line 77, in output_aux\n  File "gluon/template.py", line 149, in output\n  File "gluon/template.py", line 149, in <genexpr>\n  File "gluon/template.py", line 77, in output_aux\n  File "gluon/template.py", line 149, in output\n  File "gluon/template.py", line 149, in <genexpr>\n  File "gluon/template.py", line 77, in output_aux\n  File "gluon/template.py", line 149, in output\n  File "gluon/template.py", line 149, in <genexpr>\n  File "gluon/template.py", line 77, in output_aux\n  File "gluon/template.py", line 149, in output\n  File "gluon/template.py", line 149, in <genexpr>\n  File "gluon/template.py", line 77, in output_aux\n  File "gluon/template.py", line 149, in output\n  File "gluon/template.py", line 149, in <genexpr>\n  File "gluon/template.py", line 77, in output_aux\n  File "gluon/template.py", line 149, in output\n  File "gluon/template.py", line 149, in <genexpr>\n  File "gluon/template.py", line 77, in output_aux\n  File "gluon/template.py", line 149, in output\n  File "gluon/template.py", line 149, in <genexpr>\n  File "gluon/template.py", line 77, in output_aux\n  File "gluon/template.py", line 149, in output\n  File "gluon/template.py", line 149, in <genexpr>\n  File "gluon/template.py", line 77, in output_aux\n  File "gluon/template.py", line 149, in output\n  File "gluon/template.py", line 149, in <genexpr>\n  File "gluon/template.py", line 77, in output_aux\n  File "gluon/template.py", line 149, in output\n  File "gluon/template.py", line 149, in <genexpr>\n  File "gluon/template.py", line 77, in output_aux\n  File "gluon/template.py", line 149, in output\n  File "gluon/template.py", line 149, in <genexpr>\n  File "gluon/template.py", line 77, in output_aux\n  File "gluon/template.py", line 149, in output\n  File "gluon/template.py", line 149, in <genexpr>\n  File "gluon/template.py", line 77, in output_aux\n  File "gluon/template.py", line 149, in output\n  File "gluon/template.py", line 149, in <genexpr>\n  File "gluon/template.py", line 77, in output_aux\n  File "gluon/template.py", line 149, in output\n  File "gluon/template.py", line 149, in <genexpr>\n  File "gluon/template.py", line 77, in output_aux\n  File "gluon/template.py", line 149, in output\n  File "gluon/template.py", line 149, in <genexpr>\n  File "gluon/template.py", line 77, in output_aux\n  File "gluon/template.py", line 149, in output\n  File "gluon/template.py", line 149, in <genexpr>\n  File "gluon/template.py", line 77, in output_aux\n  File "gluon/template.py", line 149, in output\n  File "gluon/template.py", line 149, in <genexpr>\n  File "gluon/template.py", line 77, in output_aux\n  File "gluon/template.py", line 149, in output\n  File "gluon/template.py", line 149, in <genexpr>\n  File "gluon/template.py", line 77, in output_aux\n  File "gluon/template.py", line 149, in output\n  File "gluon/template.py", line 149, in <genexpr>\n  File "gluon/template.py", line 77, in output_aux\n  File "gluon/template.py", line 149, in output\n  File "gluon/template.py", line 149, in <genexpr>\n  File "gluon/template.py", line 77, in output_aux\n  File "gluon/template.py", line 149, in output\n  File "gluon/template.py", line 149, in <genexpr>\n  File "gluon/template.py", line 77, in output_aux\n  File "gluon/template.py", line 149, in output\n  File "gluon/template.py", line 149, in <genexpr>\n  File "gluon/template.py", line 77, in output_aux\n  File "gluon/template.py", line 149, in output\n  File "gluon/template.py", line 149, in <genexpr>\n  File "gluon/template.py", line 77, in output_aux\n  File "gluon/template.py", line 149, in output\n  File "gluon/template.py", line 149, in <genexpr>\n  File "gluon/template.py", line 77, in output_aux\n  File "gluon/template.py", line 149, in output\n  File "gluon/template.py", line 149, in <genexpr>\n  File "gluon/template.py", line 77, in output_aux\n  File "gluon/template.py", line 149, in output\n  File "gluon/template.py", line 149, in <genexpr>\n  File "gluon/template.py", line 77, in output_aux\n  File "gluon/template.py", line 149, in output\n  File "gluon/template.py", line 149, in <genexpr>\n  File "gluon/template.py", line 77, in output_aux\n  File "gluon/template.py", line 149, in output\n  File "gluon/template.py", line 149, in <genexpr>\n  File "gluon/template.py", line 77, in output_aux\n  File "gluon/template.py", line 149, in output\n  File "gluon/template.py", line 149, in <genexpr>\n  File "gluon/template.py", line 77, in output_aux\n  File "gluon/template.py", line 149, in output\n  File "gluon/template.py", line 149, in <genexpr>\n  File "gluon/template.py", line 77, in output_aux\n  File "gluon/template.py", line 149, in output\n  File "gluon/template.py", line 149, in <genexpr>\n  File "gluon/template.py", line 77, in output_aux\n  File "gluon/template.py", line 149, in output\n  File "gluon/template.py", line 149, in <genexpr>\n  File "gluon/template.py", line 77, in output_aux\n  File "gluon/template.py", line 149, in output\n  File "gluon/template.py", line 149, in <genexpr>\n  File "gluon/template.py", line 77, in output_aux\n  File "gluon/template.py", line 149, in output\n  File "gluon/template.py", line 149, in <genexpr>\n  File "gluon/template.py", line 77, in output_aux\n  File "gluon/template.py", line 149, in output\n  File "gluon/template.py", line 149, in <genexpr>\n  File "gluon/template.py", line 77, in output_aux\n  File "gluon/template.py", line 149, in output\n  File "gluon/template.py", line 149, in <genexpr>\n  File "gluon/template.py", line 77, in output_aux\n  File "gluon/template.py", line 149, in output\n  File "gluon/template.py", line 149, in <genexpr>\n  File "gluon/template.py", line 77, in output_aux\n  File "gluon/template.py", line 149, in output\n  File "gluon/template.py", line 149, in <genexpr>\n  File "gluon/template.py", line 77, in output_aux\n  File "gluon/template.py", line 149, in output\n  File "gluon/template.py", line 149, in <genexpr>\n  File "gluon/template.py", line 77, in output_aux\n  File "gluon/template.py", line 149, in output\n  File "gluon/template.py", line 149, in <genexpr>\n  File "gluon/template.py", line 77, in output_aux\n  File "gluon/template.py", line 149, in output\n  File "gluon/template.py", line 149, in <genexpr>\n  File "gluon/template.py", line 77, in output_aux\n  File "gluon/template.py", line 149, in output\n  File "gluon/template.py", line 149, in <genexpr>\n  File "gluon/template.py", line 77, in output_aux\n  File "gluon/template.py", line 149, in output\n  File "gluon/template.py", line 149, in <genexpr>\n  File "gluon/template.py", line 77, in output_aux\n  File "gluon/template.py", line 149, in output\n  File "gluon/template.py", line 149, in <genexpr>\n  File "gluon/template.py", line 77, in output_aux\n  File "gluon/template.py", line 149, in output\n  File "gluon/template.py", line 149, in <genexpr>\n  File "gluon/template.py", line 77, in output_aux\n  File "gluon/template.py", line 149, in output\n  File "gluon/template.py", line 149, in <genexpr>\n  File "gluon/template.py", line 77, in output_aux\n  File "gluon/template.py", line 149, in output\n  File "gluon/template.py", line 149, in <genexpr>\n  File "gluon/template.py", line 77, in output_aux\n  File "gluon/template.py", line 149, in output\n  File "gluon/template.py", line 149, in <genexpr>\n  File "gluon/template.py", line 77, in output_aux\n  File "gluon/template.py", line 149, in output\n  File "gluon/template.py", line 149, in <genexpr>\n  File "gluon/template.py", line 77, in output_aux\n  File "gluon/template.py", line 149, in output\n  File "gluon/template.py", line 149, in <genexpr>\n  File "gluon/template.py", line 77, in output_aux\n  File "gluon/template.py", line 149, in output\n  File "gluon/template.py", line 149, in <genexpr>\n  File "gluon/template.py", line 77, in output_aux\n  File "gluon/template.py", line 149, in output\n  File "gluon/template.py", line 149, in <genexpr>\n  File "gluon/template.py", line 77, in output_aux\n  File "gluon/template.py", line 149, in output\n  File "gluon/template.py", line 149, in <genexpr>\n  File "gluon/template.py", line 77, in output_aux\n  File "gluon/template.py", line 149, in output\n  File "gluon/template.py", line 149, in <genexpr>\n  File "gluon/template.py", line 77, in output_aux\n  File "gluon/template.py", line 149, in output\n  File "gluon/template.py", line 149, in <genexpr>\n  File "gluon/template.py", line 77, in output_aux\n  File "gluon/template.py", line 149, in output\n  File "gluon/template.py", line 149, in <genexpr>\n  File "gluon/template.py", line 77, in output_aux\n  File "gluon/template.py", line 149, in output\n  File "gluon/template.py", line 149, in <genexpr>\n  File "gluon/template.py", line 77, in output_aux\n  File "gluon/template.py", line 149, in output\n  File "gluon/template.py", line 149, in <genexpr>\n  File "gluon/template.py", line 77, in output_aux\n  File "gluon/template.py", line 149, in output\n  File "gluon/template.py", line 149, in <genexpr>\n  File "gluon/template.py", line 77, in output_aux\n  File "gluon/template.py", line 149, in output\n  File "gluon/template.py", line 149, in <genexpr>\n  File "gluon/template.py", line 77, in output_aux\n  File "gluon/template.py", line 149, in output\n  File "gluon/template.py", line 149, in <genexpr>\n  File "gluon/template.py", line 77, in output_aux\n  File "gluon/template.py", line 149, in output\n  File "gluon/template.py", line 149, in <genexpr>\n  File "gluon/template.py", line 77, in output_aux\n  File "gluon/template.py", line 149, in output\n  File "gluon/template.py", line 149, in <genexpr>\n  File "gluon/template.py", line 77, in output_aux\n  File "gluon/template.py", line 149, in output\n  File "gluon/template.py", line 149, in <genexpr>\n  File "gluon/template.py", line 77, in output_aux\n  File "gluon/template.py", line 149, in output\n  File "gluon/template.py", line 149, in <genexpr>\n  File "gluon/template.py", line 77, in output_aux\n  File "gluon/template.py", line 149, in output\n  File "gluon/template.py", line 149, in <genexpr>\n  File "gluon/template.py", line 77, in output_aux\n  File "gluon/template.py", line 149, in output\n  File "gluon/template.py", line 149, in <genexpr>\n  File "gluon/template.py", line 77, in output_aux\n  File "gluon/template.py", line 149, in output\n  File "gluon/template.py", line 149, in <genexpr>\n  File "gluon/template.py", line 77, in output_aux\n  File "gluon/template.py", line 149, in output\n  File "gluon/template.py", line 149, in <genexpr>\n  File "gluon/template.py", line 77, in output_aux\n  File "gluon/template.py", line 149, in output\n  File "gluon/template.py", line 149, in <genexpr>\n  File "gluon/template.py", line 77, in output_aux\n  File "gluon/template.py", line 149, in output\n  File "gluon/template.py", line 149, in <genexpr>\n  File "gluon/template.py", line 77, in output_aux\n  File "gluon/template.py", line 149, in output\n  File "gluon/template.py", line 149, in <genexpr>\n  File "gluon/template.py", line 77, in output_aux\n  File "gluon/template.py", line 149, in output\n  File "gluon/template.py", line 149, in <genexpr>\n  File "gluon/template.py", line 77, in output_aux\n  File "gluon/template.py", line 149, in output\n  File "gluon/template.py", line 149, in <genexpr>\n  File "gluon/template.py", line 77, in output_aux\n  File "gluon/template.py", line 149, in output\n  File "gluon/template.py", line 149, in <genexpr>\n  File "gluon/template.py", line 77, in output_aux\n  File "gluon/template.py", line 149, in output\n  File "gluon/template.py", line 149, in <genexpr>\n  File "gluon/template.py", line 77, in output_aux\n  File "gluon/template.py", line 149, in output\n  File "gluon/template.py", line 149, in <genexpr>\n  File "gluon/template.py", line 77, in output_aux\n  File "gluon/template.py", line 149, in output\n  File "gluon/template.py", line 149, in <genexpr>\n  File "gluon/template.py", line 77, in output_aux\n  File "gluon/template.py", line 149, in output\n  File "gluon/template.py", line 149, in <genexpr>\n  File "gluon/template.py", line 77, in output_aux\n  File "gluon/template.py", line 149, in output\n  File "gluon/template.py", line 149, in <genexpr>\n  File "gluon/template.py", line 77, in output_aux\n  File "gluon/template.py", line 149, in output\n  File "gluon/template.py", line 149, in <genexpr>\n  File "gluon/template.py", line 77, in output_aux\n  File "gluon/template.py", line 149, in output\n  File "gluon/template.py", line 149, in <genexpr>\n  File "gluon/template.py", line 77, in output_aux\n  File "gluon/template.py", line 149, in output\n  File "gluon/template.py", line 149, in <genexpr>\n  File "gluon/template.py", line 77, in output_aux\n  File "gluon/template.py", line 149, in output\n  File "gluon/template.py", line 149, in <genexpr>\n  File "gluon/template.py", line 77, in output_aux\n  File "gluon/template.py", line 149, in output\n  File "gluon/template.py", line 149, in <genexpr>\n  File "gluon/template.py", line 77, in output_aux\n  File "gluon/template.py", line 149, in output\n  File "gluon/template.py", line 149, in <genexpr>\n  File "gluon/template.py", line 77, in output_aux\n  File "gluon/template.py", line 149, in output\n  File "gluon/template.py", line 149, in <genexpr>\n  File "gluon/template.py", line 77, in output_aux\n  File "gluon/template.py", line 149, in output\n  File "gluon/template.py", line 149, in <genexpr>\n  File "gluon/template.py", line 77, in output_aux\n  File "gluon/template.py", line 149, in output\n  File "gluon/template.py", line 149, in <genexpr>\n  File "gluon/template.py", line 77, in output_aux\n  File "gluon/template.py", line 149, in output\n  File "gluon/template.py", line 149, in <genexpr>\n  File "gluon/template.py", line 77, in output_aux\n  File "gluon/template.py", line 149, in output\n  File "gluon/template.py", line 149, in <genexpr>\n  File "gluon/template.py", line 77, in output_aux\n  File "gluon/template.py", line 149, in output\n  File "gluon/template.py", line 149, in <genexpr>\n  File "gluon/template.py", line 77, in output_aux\n  File "gluon/template.py", line 149, in output\n  File "gluon/template.py", line 149, in <genexpr>\n  File "gluon/template.py", line 77, in output_aux\n  File "gluon/template.py", line 149, in output\n  File "gluon/template.py", line 149, in <genexpr>\n  File "gluon/template.py", line 77, in output_aux\n  File "gluon/template.py", line 149, in output\n  File "gluon/template.py", line 149, in <genexpr>\n  File "gluon/template.py", line 77, in output_aux\n  File "gluon/template.py", line 149, in output\n  File "gluon/template.py", line 149, in <genexpr>\n  File "gluon/template.py", line 77, in output_aux\n  File "gluon/template.py", line 149, in output\n  File "gluon/template.py", line 149, in <genexpr>\n  File "gluon/template.py", line 77, in output_aux\n  File "gluon/template.py", line 149, in output\n  File "gluon/template.py", line 149, in <genexpr>\n  File "gluon/template.py", line 77, in output_aux\n  File "gluon/template.py", line 149, in output\n  File "gluon/template.py", line 149, in <genexpr>\n  File "gluon/template.py", line 77, in output_aux\n  File "gluon/template.py", line 149, in output\n  File "gluon/template.py", line 149, in <genexpr>\n  File "gluon/template.py", line 77, in output_aux\n  File "gluon/template.py", line 149, in output\n  File "gluon/template.py", line 149, in <genexpr>\n  File "gluon/template.py", line 77, in output_aux\n  File "gluon/template.py", line 149, in output\n  File "gluon/template.py", line 149, in <genexpr>\n  File "gluon/template.py", line 77, in output_aux\n  File "gluon/template.py", line 149, in output\n  File "gluon/template.py", line 149, in <genexpr>\n  File "gluon/template.py", line 77, in output_aux\n  File "gluon/template.py", line 149, in output\n  File "gluon/template.py", line 149, in <genexpr>\n  File "gluon/template.py", line 77, in output_aux\n  File "gluon/template.py", line 149, in output\n  File "gluon/template.py", line 149, in <genexpr>\n  File "gluon/template.py", line 77, in output_aux\n  File "gluon/template.py", line 149, in output\n  File "gluon/template.py", line 149, in <genexpr>\n  File "gluon/template.py", line 77, in output_aux\n  File "gluon/template.py", line 149, in output\n  File "gluon/template.py", line 149, in <genexpr>\n  File "gluon/template.py", line 77, in output_aux\n  File "gluon/template.py", line 149, in output\n  File "gluon/template.py", line 149, in <genexpr>\n  File "gluon/template.py", line 77, in output_aux\n  File "gluon/template.py", line 149, in output\n  File "gluon/template.py", line 149, in <genexpr>\n  File "gluon/template.py", line 77, in output_aux\n  File "gluon/template.py", line 149, in output\n  File "gluon/template.py", line 149, in <genexpr>\n  File "gluon/template.py", line 77, in output_aux\n  File "gluon/template.py", line 149, in output\n  File "gluon/template.py", line 149, in <genexpr>\n  File "gluon/template.py", line 77, in output_aux\n  File "gluon/template.py", line 149, in output\n  File "gluon/template.py", line 149, in <genexpr>\n  File "gluon/template.py", line 77, in output_aux\n  File "gluon/template.py", line 149, in output\n  File "gluon/template.py", line 149, in <genexpr>\n  File "gluon/template.py", line 77, in output_aux\n  File "gluon/template.py", line 149, in output\n  File "gluon/template.py", line 149, in <genexpr>\n  File "gluon/template.py", line 77, in output_aux\n  File "gluon/template.py", line 149, in output\n  File "gluon/template.py", line 149, in <genexpr>\n  File "gluon/template.py", line 77, in output_aux\n  File "gluon/template.py", line 149, in output\n  File "gluon/template.py", line 149, in <genexpr>\n  File "gluon/template.py", line 77, in output_aux\n  File "gluon/template.py", line 149, in output\n  File "gluon/template.py", line 149, in <genexpr>\n  File "gluon/template.py", line 77, in output_aux\n  File "gluon/template.py", line 149, in output\n  File "gluon/template.py", line 149, in <genexpr>\n  File "gluon/template.py", line 77, in output_aux\n  File "gluon/template.py", line 149, in output\n  File "gluon/template.py", line 149, in <genexpr>\n  File "gluon/template.py", line 77, in output_aux\n  File "gluon/template.py", line 149, in output\n  File "gluon/template.py", line 149, in <genexpr>\n  File "gluon/template.py", line 77, in output_aux\n  File "gluon/template.py", line 149, in output\n  File "gluon/template.py", line 149, in <genexpr>\n  File "gluon/template.py", line 77, in output_aux\n  File "gluon/template.py", line 149, in output\n  File "gluon/template.py", line 149, in <genexpr>\n  File "gluon/template.py", line 77, in output_aux\n  File "gluon/template.py", line 149, in output\n  File "gluon/template.py", line 149, in <genexpr>\n  File "gluon/template.py", line 77, in output_aux\n  File "gluon/template.py", line 149, in output\n  File "gluon/template.py", line 149, in <genexpr>\n  File "gluon/template.py", line 77, in output_aux\n  File "gluon/template.py", line 149, in output\n  File "gluon/template.py", line 149, in <genexpr>\n  File "gluon/template.py", line 77, in output_aux\n  File "gluon/template.py", line 149, in output\n  File "gluon/template.py", line 149, in <genexpr>\n  File "gluon/template.py", line 77, in output_aux\n  File "gluon/template.py", line 149, in output\n  File "gluon/template.py", line 149, in <genexpr>\n  File "gluon/template.py", line 77, in output_aux\n  File "gluon/template.py", line 149, in output\n  File "gluon/template.py", line 149, in <genexpr>\n  File "gluon/template.py", line 77, in output_aux\n  File "gluon/template.py", line 149, in output\n  File "gluon/template.py", line 149, in <genexpr>\n  File "gluon/template.py", line 77, in output_aux\n  File "gluon/template.py", line 149, in output\n  File "gluon/template.py", line 149, in <genexpr>\n  File "gluon/template.py", line 77, in output_aux\n  File "gluon/template.py", line 149, in output\n  File "gluon/template.py", line 149, in <genexpr>\n  File "gluon/template.py", line 77, in output_aux\n  File "gluon/template.py", line 149, in output\n  File "gluon/template.py", line 149, in <genexpr>\n  File "gluon/template.py", line 77, in output_aux\n  File "gluon/template.py", line 149, in output\n  File "gluon/template.py", line 149, in <genexpr>\n  File "gluon/template.py", line 77, in output_aux\n  File "gluon/template.py", line 149, in output\n  File "gluon/template.py", line 149, in <genexpr>\n  File "gluon/template.py", line 77, in output_aux\n  File "gluon/template.py", line 149, in output\n  File "gluon/template.py", line 149, in <genexpr>\n  File "gluon/template.py", line 77, in output_aux\n  File "gluon/template.py", line 149, in output\n  File "gluon/template.py", line 149, in <genexpr>\n  File "gluon/template.py", line 77, in output_aux\n  File "gluon/template.py", line 149, in output\n  File "gluon/template.py", line 149, in <genexpr>\n  File "gluon/template.py", line 77, in output_aux\n  File "gluon/template.py", line 149, in output\n  File "gluon/template.py", line 149, in <genexpr>\n  File "gluon/template.py", line 77, in output_aux\n  File "gluon/template.py", line 149, in output\n  File "gluon/template.py", line 149, in <genexpr>\n  File "gluon/template.py", line 77, in output_aux\n  File "gluon/template.py", line 149, in output\n  File "gluon/template.py", line 149, in <genexpr>\n  File "gluon/template.py", line 77, in output_aux\n  File "gluon/template.py", line 149, in output\n  File "gluon/template.py", line 149, in <genexpr>\n  File "gluon/template.py", line 77, in output_aux\n  File "gluon/template.py", line 149, in output\n  File "gluon/template.py", line 149, in <genexpr>\n  File "gluon/template.py", line 77, in output_aux\n  File "gluon/template.py", line 149, in output\n  File "gluon/template.py", line 149, in <genexpr>\n  File "gluon/template.py", line 77, in output_aux\n  File "gluon/template.py", line 149, in output\n  File "gluon/template.py", line 149, in <genexpr>\n  File "gluon/template.py", line 77, in output_aux\n  File "gluon/template.py", line 149, in output\n  File "gluon/template.py", line 149, in <genexpr>\n  File "gluon/template.py", line 77, in output_aux\n  File "gluon/template.py", line 149, in output\n  File "gluon/template.py", line 149, in <genexpr>\n  File "gluon/template.py", line 77, in output_aux\n  File "gluon/template.py", line 149, in output\n  File "gluon/template.py", line 149, in <genexpr>\n  File "gluon/template.py", line 77, in output_aux\n  File "gluon/template.py", line 149, in output\n  File "gluon/template.py", line 149, in <genexpr>\n  File "gluon/template.py", line 77, in output_aux\n  File "gluon/template.py", line 149, in output\n  File "gluon/template.py", line 149, in <genexpr>\n  File "gluon/template.py", line 77, in output_aux\n  File "gluon/template.py", line 149, in output\n  File "gluon/template.py", line 149, in <genexpr>\n  File "gluon/template.py", line 77, in output_aux\n  File "gluon/template.py", line 149, in output\n  File "gluon/template.py", line 149, in <genexpr>\n  File "gluon/template.py", line 77, in output_aux\n  File "gluon/template.py", line 149, in output\n  File "gluon/template.py", line 149, in <genexpr>\n  File "gluon/template.py", line 77, in output_aux\n  File "gluon/template.py", line 149, in output\n  File "gluon/template.py", line 149, in <genexpr>\n  File "gluon/template.py", line 77, in output_aux\n  File "gluon/template.py", line 149, in output\n  File "gluon/template.py", line 149, in <genexpr>\n  File "gluon/template.py", line 77, in output_aux\n  File "gluon/template.py", line 149, in output\n  File "gluon/template.py", line 149, in <genexpr>\n  File "gluon/template.py", line 77, in output_aux\n  File "gluon/template.py", line 149, in output\n  File "gluon/template.py", line 149, in <genexpr>\n  File "gluon/template.py", line 77, in output_aux\n  File "gluon/template.py", line 149, in output\n  File "gluon/template.py", line 149, in <genexpr>\n  File "gluon/template.py", line 77, in output_aux\n  File "gluon/template.py", line 149, in output\n  File "gluon/template.py", line 149, in <genexpr>\n  File "gluon/template.py", line 77, in output_aux\n  File "gluon/template.py", line 149, in output\n  File "gluon/template.py", line 149, in <genexpr>\n  File "gluon/template.py", line 77, in output_aux\n  File "gluon/template.py", line 149, in output\n  File "gluon/template.py", line 149, in <genexpr>\n  File "gluon/template.py", line 77, in output_aux\n  File "gluon/template.py", line 149, in output\n  File "gluon/template.py", line 149, in <genexpr>\n  File "gluon/template.py", line 77, in output_aux\n  File "gluon/template.py", line 149, in output\n  File "gluon/template.py", line 149, in <genexpr>\n  File "gluon/template.py", line 77, in output_aux\n  File "gluon/template.py", line 149, in output\n  File "gluon/template.py", line 149, in <genexpr>\n  File "gluon/template.py", line 77, in output_aux\n  File "gluon/template.py", line 149, in output\n  File "gluon/template.py", line 149, in <genexpr>\n  File "gluon/template.py", line 77, in output_aux\n  File "gluon/template.py", line 149, in output\n  File "gluon/template.py", line 149, in <genexpr>\n  File "gluon/template.py", line 77, in output_aux\n  File "gluon/template.py", line 149, in output\n  File "gluon/template.py", line 149, in <genexpr>\n  File "gluon/template.py", line 77, in output_aux\n  File "gluon/template.py", line 149, in output\n  File "gluon/template.py", line 149, in <genexpr>\n  File "gluon/template.py", line 77, in output_aux\n  File "gluon/template.py", line 149, in output\n  File "gluon/template.py", line 149, in <genexpr>\n  File "gluon/template.py", line 77, in output_aux\n  File "gluon/template.py", line 149, in output\n  File "gluon/template.py", line 149, in <genexpr>\n  File "gluon/template.py", line 77, in output_aux\n  File "gluon/template.py", line 149, in output\n  File "gluon/template.py", line 149, in <genexpr>\n  File "gluon/template.py", line 77, in output_aux\n  File "gluon/template.py", line 149, in output\n  File "gluon/template.py", line 149, in <genexpr>\n  File "gluon/template.py", line 77, in output_aux\n  File "gluon/template.py", line 149, in output\n  File "gluon/template.py", line 149, in <genexpr>\n  File "gluon/template.py", line 77, in output_aux\n  File "gluon/template.py", line 149, in output\n  File "gluon/template.py", line 149, in <genexpr>\n  File "gluon/template.py", line 77, in output_aux\n  File "gluon/template.py", line 149, in output\n  File "gluon/template.py", line 149, in <genexpr>\n  File "gluon/template.py", line 77, in output_aux\n  File "gluon/template.py", line 149, in output\n  File "gluon/template.py", line 149, in <genexpr>\n  File "gluon/template.py", line 77, in output_aux\n  File "gluon/template.py", line 149, in output\n  File "gluon/template.py", line 149, in <genexpr>\n  File "gluon/template.py", line 77, in output_aux\n  File "gluon/template.py", line 149, in output\n  File "gluon/template.py", line 149, in <genexpr>\n  File "gluon/template.py", line 77, in output_aux\n  File "gluon/template.py", line 149, in output\n  File "gluon/template.py", line 149, in <genexpr>\n  File "gluon/template.py", line 77, in output_aux\n  File "gluon/template.py", line 149, in output\n  File "gluon/template.py", line 149, in <genexpr>\n  File "gluon/template.py", line 77, in output_aux\n  File "gluon/template.py", line 149, in output\n  File "gluon/template.py", line 149, in <genexpr>\n  File "gluon/template.py", line 77, in output_aux\n  File "gluon/template.py", line 149, in output\n  File "gluon/template.py", line 149, in <genexpr>\n  File "gluon/template.py", line 77, in output_aux\n  File "gluon/template.py", line 149, in output\n  File "gluon/template.py", line 149, in <genexpr>\n  File "gluon/template.py", line 77, in output_aux\n  File "gluon/template.py", line 149, in output\n  File "gluon/template.py", line 149, in <genexpr>\n  File "gluon/template.py", line 77, in output_aux\n  File "gluon/template.py", line 149, in output\n  File "gluon/template.py", line 149, in <genexpr>\n  File "gluon/template.py", line 77, in output_aux\n  File "gluon/template.py", line 149, in output\n  File "gluon/template.py", line 149, in <genexpr>\n  File "gluon/template.py", line 77, in output_aux\n  File "gluon/template.py", line 149, in output\n  File "gluon/template.py", line 149, in <genexpr>\n  File "gluon/template.py", line 77, in output_aux\n  File "gluon/template.py", line 149, in output\n  File "gluon/template.py", line 149, in <genexpr>\n  File "gluon/template.py", line 77, in output_aux\n  File "gluon/template.py", line 149, in output\n  File "gluon/template.py", line 149, in <genexpr>\n  File "gluon/template.py", line 77, in output_aux\n  File "gluon/template.py", line 149, in output\n  File "gluon/template.py", line 149, in <genexpr>\n  File "gluon/template.py", line 77, in output_aux\n  File "gluon/template.py", line 149, in output\n  File "gluon/template.py", line 149, in <genexpr>\n  File "gluon/template.py", line 77, in output_aux\n  File "gluon/template.py", line 149, in output\n  File "gluon/template.py", line 149, in <genexpr>\n  File "gluon/template.py", line 77, in output_aux\n  File "gluon/template.py", line 149, in output\n  File "gluon/template.py", line 149, in <genexpr>\n  File "gluon/template.py", line 77, in output_aux\n  File "gluon/template.py", line 149, in output\n  File "gluon/template.py", line 149, in <genexpr>\n  File "gluon/template.py", line 77, in output_aux\n  File "gluon/template.py", line 149, in output\n  File "gluon/template.py", line 149, in <genexpr>\n  File "gluon/template.py", line 77, in output_aux\n  File "gluon/template.py", line 149, in output\n  File "gluon/template.py", line 149, in <genexpr>\n  File "gluon/template.py", line 77, in output_aux\n  File "gluon/template.py", line 149, in output\n  File "gluon/template.py", line 149, in <genexpr>\n  File "gluon/template.py", line 77, in output_aux\n  File "gluon/template.py", line 149, in output\n  File "gluon/template.py", line 149, in <genexpr>\n  File "gluon/template.py", line 77, in output_aux\n  File "gluon/template.py", line 149, in output\n  File "gluon/template.py", line 149, in <genexpr>\n  File "gluon/template.py", line 77, in output_aux\n  File "gluon/template.py", line 149, in output\n  File "gluon/template.py", line 149, in <genexpr>\n  File "gluon/template.py", line 77, in output_aux\n  File "gluon/template.py", line 149, in output\n  File "gluon/template.py", line 149, in <genexpr>\n  File "gluon/template.py", line 77, in output_aux\n  File "gluon/template.py", line 149, in output\n  File "gluon/template.py", line 149, in <genexpr>\n  File "gluon/template.py", line 77, in output_aux\n  File "gluon/template.py", line 149, in output\n  File "gluon/template.py", line 149, in <genexpr>\n  File "gluon/template.py", line 77, in output_aux\n  File "gluon/template.py", line 149, in output\n  File "gluon/template.py", line 149, in <genexpr>\n  File "gluon/template.py", line 77, in output_aux\n  File "gluon/template.py", line 149, in output\n  File "gluon/template.py", line 149, in <genexpr>\n  File "gluon/template.py", line 77, in output_aux\n  File "gluon/template.py", line 149, in output\n  File "gluon/template.py", line 149, in <genexpr>\n  File "gluon/template.py", line 77, in output_aux\n  File "gluon/template.py", line 149, in output\n  File "gluon/template.py", line 149, in <genexpr>\n  File "gluon/template.py", line 77, in output_aux\n  File "gluon/template.py", line 149, in output\n  File "gluon/template.py", line 149, in <genexpr>\n  File "gluon/template.py", line 77, in output_aux\n  File "gluon/template.py", line 149, in output\n  File "gluon/template.py", line 149, in <genexpr>\n  File "gluon/template.py", line 77, in output_aux\n  File "gluon/template.py", line 149, in output\n  File "gluon/template.py", line 149, in <genexpr>\n  File "gluon/template.py", line 77, in output_aux\n  File "gluon/template.py", line 149, in output\n  File "gluon/template.py", line 149, in <genexpr>\n  File "gluon/template.py", line 77, in output_aux\n  File "gluon/template.py", line 149, in output\n  File "gluon/template.py", line 149, in <genexpr>\n  File "gluon/template.py", line 77, in output_aux\n  File "gluon/template.py", line 149, in output\n  File "gluon/template.py", line 149, in <genexpr>\n  File "gluon/template.py", line 77, in output_aux\n  File "gluon/template.py", line 149, in output\n  File "gluon/template.py", line 149, in <genexpr>\n  File "gluon/template.py", line 77, in output_aux\n  File "gluon/template.py", line 149, in output\n  File "gluon/template.py", line 149, in <genexpr>\n  File "gluon/template.py", line 77, in output_aux\n  File "gluon/template.py", line 149, in output\n  File "gluon/template.py", line 149, in <genexpr>\n  File "gluon/template.py", line 77, in output_aux\n  File "gluon/template.py", line 149, in output\n  File "gluon/template.py", line 149, in <genexpr>\n  File "gluon/template.py", line 77, in output_aux\n  File "gluon/template.py", line 149, in output\n  File "gluon/template.py", line 149, in <genexpr>\n  File "gluon/template.py", line 77, in output_aux\n  File "gluon/template.py", line 149, in output\n  File "gluon/template.py", line 149, in <genexpr>\n  File "gluon/template.py", line 77, in output_aux\n  File "gluon/template.py", line 149, in output\n  File "gluon/template.py", line 149, in <genexpr>\n  File "gluon/template.py", line 77, in output_aux\n  File "gluon/template.py", line 149, in output\n  File "gluon/template.py", line 149, in <genexpr>\n  File "gluon/template.py", line 77, in output_aux\n  File "gluon/template.py", line 149, in output\n  File "gluon/template.py", line 149, in <genexpr>\n  File "gluon/template.py", line 77, in output_aux\n  File "gluon/template.py", line 149, in output\n  File "gluon/template.py", line 149, in <genexpr>\n  File "gluon/template.py", line 77, in output_aux\n  File "gluon/template.py", line 149, in output\n  File "gluon/template.py", line 149, in <genexpr>\n  File "gluon/template.py", line 77, in output_aux\n  File "gluon/template.py", line 149, in output\n  File "gluon/template.py", line 149, in <genexpr>\n  File "gluon/template.py", line 78, in output_aux\nRuntimeError: maximum recursion depth exceeded\n'
p9
s.